Certificate:
    Data:
        Version: 3 (0x2)
        Serial Number: 1 (0x1)
    Signature Algorithm: sha1WithRSAEncryption
        Issuer: C=US, O=PacRT DOT IO, OU=PacRT Certificate Authority, CN=PacRT Root CA
        Validity
            Not Before: Feb 19 23:52:51 2016 GMT
            Not After : Dec 31 23:59:59 2030 GMT
        Subject: C=US, O=PacRT DOT IO, OU=PacRT Certificate Authority, CN=PacRT Root CA
        Subject Public Key Info:
            Public Key Algorithm: rsaEncryption
                Public-Key: (2048 bit)
                Modulus:
                    00:de:71:72:00:35:68:f4:e2:25:d3:57:31:d3:ea:
                    74:80:93:48:39:7c:2f:e7:48:6f:fe:c8:ba:66:5c:
                    3e:35:40:ec:56:db:1c:f1:a9:80:73:3a:0c:ab:6f:
                    44:92:dc:7f:16:5f:15:1f:ce:13:3e:f6:85:55:02:
                    20:f5:a7:35:ba:92:3b:eb:bc:20:9f:0d:6d:05:23:
                    d3:9a:ed:c1:0e:9b:97:7d:e9:f6:75:b8:30:1c:d2:
                    6f:f0:35:07:c3:b9:10:11:de:66:ce:44:39:1e:5e:
                    a3:7a:e0:3b:e4:10:db:39:be:72:8d:0b:bb:37:f0:
                    d0:90:ff:9e:f3:ed:31:c6:03:9d:3e:89:0c:f8:6b:
                    8a:57:9a:4b:b3:6d:7d:c1:75:c2:12:65:0c:d6:5f:
                    cb:0e:d3:f3:e5:00:b6:28:6c:0e:47:5b:b5:23:7b:
                    ee:7a:bb:59:46:3c:03:e5:d9:f2:a9:38:19:32:0b:
                    37:e8:0b:16:da:fe:76:bc:1b:0f:5c:fe:52:1a:2d:
                    ad:94:58:f0:6d:61:23:90:48:ab:32:b8:7b:42:4a:
                    2d:4c:ff:01:a5:f5:50:eb:2c:74:7d:fb:29:60:91:
                    d0:37:76:48:25:c3:35:53:74:dd:59:b4:e2:e1:26:
                    1b:67:01:91:3e:5e:04:bd:b2:44:2f:7b:eb:41:4d:
                    fd:87
                Exponent: 65537 (0x10001)
        X509v3 extensions:
            X509v3 Key Usage: critical
                Certificate Sign, CRL Sign
            X509v3 Basic Constraints: critical
                CA:TRUE
            X509v3 Subject Key Identifier: 
                14:CC:2E:EF:5A:7E:70:B6:FB:9D:5B:25:A1:37:8E:E4:6B:F1:93:CF
            X509v3 Authority Key Identifier: 
                keyid:14:CC:2E:EF:5A:7E:70:B6:FB:9D:5B:25:A1:37:8E:E4:6B:F1:93:CF

    Signature Algorithm: sha1WithRSAEncryption
         b4:75:65:08:37:ac:48:df:e4:e6:a6:c1:a0:8e:a2:17:19:97:
         76:b8:e2:f8:77:a3:bb:e0:ad:78:42:c0:a3:48:f1:65:77:6c:
         2b:90:c8:5f:06:a3:4f:d4:6f:24:09:09:47:01:7f:df:15:6d:
         66:d7:3e:cc:45:00:ef:4b:20:81:ca:da:1c:26:48:18:7c:d2:
         5f:d1:98:08:f0:fc:ee:15:37:d5:d4:5a:85:39:f3:44:ae:7b:
         50:81:3c:df:ff:04:79:05:f6:b5:4d:dc:00:85:2f:ab:aa:6f:
         9b:e2:f7:d1:81:84:6d:06:25:b1:ea:e1:af:6c:4e:9f:88:88:
         e4:ce:d4:50:9d:d6:e1:28:56:6c:0e:46:85:3e:12:75:9f:23:
         cd:a3:d5:09:f6:f7:31:a3:8a:a2:34:99:c0:4c:50:13:2f:d4:
         ef:d7:6e:ea:0c:3a:c6:65:8a:42:ef:bc:bb:82:9d:f2:29:2e:
         c6:29:7c:1b:43:15:0e:8f:e7:84:12:45:95:e3:fc:e9:93:5a:
         b7:04:b6:f4:4f:71:d5:ca:c6:5d:2f:4e:86:eb:75:11:88:ce:
         de:18:54:b9:b6:06:57:e7:8f:a2:b1:aa:ce:8b:b9:4a:72:bc:
         2b:84:d2:3c:5f:e8:9c:c9:3c:0b:aa:29:1c:7c:5c:d1:15:ea:
         01:a1:51:7f
-----BEGIN CERTIFICATE-----
MIIDojCCAoqgAwIBAgIBATANBgkqhkiG9w0BAQUFADBiMQswCQYDVQQGEwJVUzEV
MBMGA1UECgwMUGFjUlQgRE9UIElPMSQwIgYDVQQLDBtQYWNSVCBDZXJ0aWZpY2F0
ZSBBdXRob3JpdHkxFjAUBgNVBAMMDVBhY1JUIFJvb3QgQ0EwHhcNMTYwMjE5MjM1
MjUxWhcNMzAxMjMxMjM1OTU5WjBiMQswCQYDVQQGEwJVUzEVMBMGA1UECgwMUGFj
UlQgRE9UIElPMSQwIgYDVQQLDBtQYWNSVCBDZXJ0aWZpY2F0ZSBBdXRob3JpdHkx
FjAUBgNVBAMMDVBhY1JUIFJvb3QgQ0EwggEiMA0GCSqGSIb3DQEBAQUAA4IBDwAw
ggEKAoIBAQDecXIANWj04iXTVzHT6nSAk0g5fC/nSG/+yLpmXD41QOxW2xzxqYBz
Ogyrb0SS3H8WXxUfzhM+9oVVAiD1pzW6kjvrvCCfDW0FI9Oa7cEOm5d96fZ1uDAc
0m/wNQfDuRAR3mbORDkeXqN64DvkENs5vnKNC7s38NCQ/57z7THGA50+iQz4a4pX
mkuzbX3BdcISZQzWX8sO0/PlALYobA5HW7Uje+56u1lGPAPl2fKpOBkyCzfoCxba
/na8Gw9c/lIaLa2UWPBtYSOQSKsyuHtCSi1M/wGl9VDrLHR9+ylgkdA3dkglwzVT
dN1ZtOLhJhtnAZE+XgS9skQve+tBTf2HAgMBAAGjYzBhMA4GA1UdDwEB/wQEAwIB
BjAPBgNVHRMBAf8EBTADAQH/MB0GA1UdDgQWBBQUzC7vWn5wtvudWyWhN47ka/GT
zzAfBgNVHSMEGDAWgBQUzC7vWn5wtvudWyWhN47ka/GTzzANBgkqhkiG9w0BAQUF
AAOCAQEAtHVlCDesSN/k5qbBoI6iFxmXdrji+Heju+CteELAo0jxZXdsK5DIXwaj
T9RvJAkJRwF/3xVtZtc+zEUA70sggcraHCZIGHzSX9GYCPD87hU31dRahTnzRK57
UIE83/8EeQX2tU3cAIUvq6pvm+L30YGEbQYlserhr2xOn4iI5M7UUJ3W4ShWbA5G
hT4SdZ8jzaPVCfb3MaOKojSZwExQEy/U79du6gw6xmWKQu+8u4Kd8ikuxil8G0MV
Do/nhBJFleP86ZNatwS29E9x1crGXS9Ohut1EYjO3hhUubYGV+ePorGqzou5SnK8
K4TSPF/onMk8C6opHHxc0RXqAaFRfw==
-----END CERTIFICATE-----
